; Function Attrs: mustprogress uwtable
define internal fastcc noundef nonnull ptr @_ZNK2cv12_GLOBAL__N_18GSafePtrI11_GstElementE3getEv(ptr readnone returned %.0.val) unnamed_addr #3 align 2 personality ptr @__gxx_personality_v0 {
  %1 = alloca %"class.std::__cxx11::basic_string", align 8
  %2 = alloca %"class.std::allocator", align 1
  %.not = icmp eq ptr %.0.val, null
  br i1 %.not, label %3, label %13

3:                                                ; preds = %0
  call void @llvm.lifetime.start.p0(i64 32, ptr nonnull %1) #30
  call void @llvm.lifetime.start.p0(i64 1, ptr nonnull %2) #30
  call void @_ZNSt7__cxx1112basic_stringIcSt11char_traitsIcESaIcEEC2EPKcRKS3_(ptr noundef nonnull align 8 dereferenceable(32) %1, ptr noundef nonnull @.str.262, ptr noundef nonnull align 1 dereferenceable(1) %2)
  invoke void @_ZN2cv5errorEiRKNSt7__cxx1112basic_stringIcSt11char_traitsIcESaIcEEEPKcS9_i(i32 noundef -215, ptr noundef nonnull align 8 dereferenceable(32) %1, ptr noundef nonnull @__func__._ZN2cv12_GLOBAL__N_18GSafePtrI11_GstElementE3getEv, ptr noundef nonnull @.str.2, i32 noundef 155) #34
          to label %4 unwind label %5

4:                                                ; preds = %3
  unreachable

5:                                                ; preds = %3
  %6 = landingpad { ptr, i32 }
          cleanup
  %7 = load ptr, ptr %1, align 8, !tbaa !57
  %8 = getelementptr inbounds nuw i8, ptr %1, i64 16
  %9 = icmp eq ptr %7, %8
  br i1 %9, label %_ZNKSt7__cxx1112basic_stringIcSt11char_traitsIcESaIcEE11_M_is_localEv.exit.thread.i.i, label %_ZNKSt7__cxx1112basic_stringIcSt11char_traitsIcESaIcEE11_M_is_localEv.exit.i.i

_ZNKSt7__cxx1112basic_stringIcSt11char_traitsIcESaIcEE11_M_is_localEv.exit.thread.i.i: ; preds = %5
  %10 = getelementptr inbounds nuw i8, ptr %1, i64 8
  %11 = load i64, ptr %10, align 8, !tbaa !52
  %12 = icmp ult i64 %11, 16
  call void @llvm.assume(i1 %12)
  br label %_ZNSt7__cxx1112basic_stringIcSt11char_traitsIcESaIcEED2Ev.exit

_ZNKSt7__cxx1112basic_stringIcSt11char_traitsIcESaIcEE11_M_is_localEv.exit.i.i: ; preds = %5
  call void @_ZdlPv(ptr noundef %7) #31
  br label %_ZNSt7__cxx1112basic_stringIcSt11char_traitsIcESaIcEED2Ev.exit

_ZNSt7__cxx1112basic_stringIcSt11char_traitsIcESaIcEED2Ev.exit: ; preds = %_ZNKSt7__cxx1112basic_stringIcSt11char_traitsIcESaIcEE11_M_is_localEv.exit.i.i, %_ZNKSt7__cxx1112basic_stringIcSt11char_traitsIcESaIcEE11_M_is_localEv.exit.thread.i.i
  call void @llvm.lifetime.end.p0(i64 1, ptr nonnull %2) #30
  call void @llvm.lifetime.end.p0(i64 32, ptr nonnull %1) #30
  resume { ptr, i32 } %6

13:                                               ; preds = %0
  ret ptr %.0.val
}